; Function Attrs: mustprogress nounwind uwtable
define internal fastcc void @_ZN8pybind116detail15argument_loaderIJRZ30test_submodule_numpy_vectorizeRNS_7module_EE11NonPODClassNS_7array_tIiLi16EEEEED2Ev(ptr %.0.val) unnamed_addr #0 align 2 personality ptr @__gxx_personality_v0 {
  %.not.i.i.i.i.i.i.i.i.i.i.i.i = icmp eq ptr %.0.val, null
  br i1 %.not.i.i.i.i.i.i.i.i.i.i.i.i, label %_ZNSt5tupleIJN8pybind116detail11type_casterIZ30test_submodule_numpy_vectorizeRNS0_7module_EE11NonPODClassvEENS2_INS0_7array_tIiLi16EEEvEEEED2Ev.exit, label %1

1:                                                ; preds = %0
  %2 = load i64, ptr %.0.val, align 8
  %3 = add nsw i64 %2, -1
  store i64 %3, ptr %.0.val, align 8
  %.not.i.i.i.i.i.i.i.i.i.i.i.i.i = icmp eq i64 %3, 0
  br i1 %.not.i.i.i.i.i.i.i.i.i.i.i.i.i, label %4, label %_ZNSt5tupleIJN8pybind116detail11type_casterIZ30test_submodule_numpy_vectorizeRNS0_7module_EE11NonPODClassvEENS2_INS0_7array_tIiLi16EEEvEEEED2Ev.exit

4:                                                ; preds = %1
  invoke void @_Py_Dealloc(ptr noundef nonnull %.0.val)
          to label %_ZNSt5tupleIJN8pybind116detail11type_casterIZ30test_submodule_numpy_vectorizeRNS0_7module_EE11NonPODClassvEENS2_INS0_7array_tIiLi16EEEvEEEED2Ev.exit unwind label %5

5:                                                ; preds = %4
  %6 = landingpad { ptr, i32 }
          catch ptr null
  %7 = extractvalue { ptr, i32 } %6, 0
  tail call void @__clang_call_terminate(ptr %7) #26
  unreachable

_ZNSt5tupleIJN8pybind116detail11type_casterIZ30test_submodule_numpy_vectorizeRNS0_7module_EE11NonPODClassvEENS2_INS0_7array_tIiLi16EEEvEEEED2Ev.exit: ; preds = %0, %1, %4
  ret void
}